; Function Attrs: mustprogress uwtable
define noundef double @_ZNK8QuantLib26SpreadedSwaptionVolatility14volatilityImplEddd(ptr noundef nonnull align 8 dereferenceable(104) %this, double noundef %t, double noundef %l, double noundef %strike) unnamed_addr #6 align 2 {
entry:
  %baseVol_ = getelementptr inbounds nuw i8, ptr %this, i64 72
  %call = tail call noundef nonnull align 8 dereferenceable(16) ptr @_ZNK8QuantLib6HandleINS_27SwaptionVolatilityStructureEEptEv(ptr noundef nonnull align 8 dereferenceable(16) %baseVol_)
  %0 = load ptr, ptr %call, align 8, !tbaa !51
  %cmp.not.i = icmp eq ptr %0, null
  br i1 %cmp.not.i, label %cond.false.i, label %_ZNK5boost10shared_ptrIN8QuantLib27SwaptionVolatilityStructureEEptEv.exit, !prof !53

cond.false.i:                                     ; preds = %entry
  tail call void @_ZN5boost16assertion_failedEPKcS1_S1_l(ptr noundef nonnull @.str.5, ptr noundef nonnull @__PRETTY_FUNCTION__._ZNK5boost10shared_ptrIN8QuantLib27SwaptionVolatilityStructureEEptEv, ptr noundef nonnull @.str.6, i64 noundef 784)
  %.pre.i = load ptr, ptr %call, align 8, !tbaa !51
  br label %_ZNK5boost10shared_ptrIN8QuantLib27SwaptionVolatilityStructureEEptEv.exit

_ZNK5boost10shared_ptrIN8QuantLib27SwaptionVolatilityStructureEEptEv.exit: ; preds = %entry, %cond.false.i
  %1 = phi ptr [ %0, %entry ], [ %.pre.i, %cond.false.i ]
  tail call void @_ZNK8QuantLib27SwaptionVolatilityStructure14checkSwapTenorEdb(ptr noundef nonnull align 8 dereferenceable(68) %1, double noundef %l, i1 noundef zeroext true)
  tail call void @_ZNK8QuantLib13TermStructure10checkRangeEdb(ptr noundef nonnull align 8 dereferenceable(64) %1, double noundef %t, i1 noundef zeroext true)
  tail call void @_ZNK8QuantLib23VolatilityTermStructure11checkStrikeEdb(ptr noundef nonnull align 8 dereferenceable(68) %1, double noundef %strike, i1 noundef zeroext true)
  %vtable.i = load ptr, ptr %1, align 8, !tbaa !35
  %vfn.i = getelementptr inbounds i8, ptr %vtable.i, i64 136
  %2 = load ptr, ptr %vfn.i, align 8
  %call.i = tail call noundef double %2(ptr noundef nonnull align 8 dereferenceable(68) %1, double noundef %t, double noundef %l, double noundef %strike)
  %spread_ = getelementptr inbounds nuw i8, ptr %this, i64 88
  %call4 = tail call noundef nonnull align 8 dereferenceable(16) ptr @_ZNK8QuantLib6HandleINS_5QuoteEEptEv(ptr noundef nonnull align 8 dereferenceable(16) %spread_)
  %3 = load ptr, ptr %call4, align 8, !tbaa !89
  %cmp.not.i1 = icmp eq ptr %3, null
  br i1 %cmp.not.i1, label %cond.false.i2, label %_ZNK5boost10shared_ptrIN8QuantLib5QuoteEEptEv.exit, !prof !53

cond.false.i2:                                    ; preds = %_ZNK5boost10shared_ptrIN8QuantLib27SwaptionVolatilityStructureEEptEv.exit
  tail call void @_ZN5boost16assertion_failedEPKcS1_S1_l(ptr noundef nonnull @.str.5, ptr noundef nonnull @__PRETTY_FUNCTION__._ZNK5boost10shared_ptrIN8QuantLib5QuoteEEptEv, ptr noundef nonnull @.str.6, i64 noundef 784)
  %.pre.i3 = load ptr, ptr %call4, align 8, !tbaa !89
  br label %_ZNK5boost10shared_ptrIN8QuantLib5QuoteEEptEv.exit

_ZNK5boost10shared_ptrIN8QuantLib5QuoteEEptEv.exit: ; preds = %_ZNK5boost10shared_ptrIN8QuantLib27SwaptionVolatilityStructureEEptEv.exit, %cond.false.i2
  %4 = phi ptr [ %3, %_ZNK5boost10shared_ptrIN8QuantLib27SwaptionVolatilityStructureEEptEv.exit ], [ %.pre.i3, %cond.false.i2 ]
  %vtable = load ptr, ptr %4, align 8, !tbaa !35
  %vfn = getelementptr inbounds i8, ptr %vtable, i64 16
  %5 = load ptr, ptr %vfn, align 8
  %call6 = tail call noundef double %5(ptr noundef nonnull align 8 dereferenceable(8) %4)
  %add = fadd double %call.i, %call6
  ret double %add
}